(dp0
S'test1'
p1
S'P1'
p2
sS'test2'
p3
g2
sS'test7'
p4
g2
sS'test6'
p5
g2
sS'test_boelter2_8'
p6
g2
sS'test_boelter2_6'
p7
g2
sS'test_boelter2_7'
p8
g2
sS'test_boelter2_3'
p9
g2
sS'test_boelter2_0'
p10
g2
sS'test_boelter2_12'
p11
S'P2'
p12
sS'test_boelter2_14'
p13
g2
sS'test_boelter2_15'
p14
g2
sS'test_boelter2_16'
p15
g2
sS'test_boelter2_17'
p16
g12
sS'test_94342_26'
p17
g2
sS'test_94342_25'
p18
g2
sS'test_94342_24'
p19
g2
sS'test_94342_23'
p20
g2
sS'test_94342_22'
p21
g2
sS'test_94342_21'
p22
g2
sS'test_94342_20'
p23
g2
sS'test_9434_18'
p24
g2
sS'test_boelter_21'
p25
g12
sS'test_boelter4_8'
p26
g12
sS'test_boelter4_13'
p27
g12
sS'test_boelter4_10'
p28
g2
sS'test_boelter4_11'
p29
g12
sS'test_boelter4_4'
p30
g12
sS'test_boelter4_5'
p31
g12
sS'test_boelter4_6'
p32
g12
sS'test_boelter4_7'
p33
g12
sS'test_boelter4_0'
p34
g12
sS'test_boelter4_1'
p35
g12
sS'test_boelter4_2'
p36
g2
sS'test_boelter4_3'
p37
g12
sS'test_boelter_19'
p38
g12
sS'test_boelter_18'
p39
g12
sS'test_boelter_10'
p40
g2
sS'test_boelter_13'
p41
g2
sS'test_boelter_12'
p42
g2
sS'test_boelter_15'
p43
g2
sS'test_boelter_14'
p44
g2
sS'test_boelter_17'
p45
g12
sS'test_boelter4_12'
p46
g2
sS'test_boelter4_9'
p47
g12
sS'test_9434_3'
p48
g12
sS'test_9434_1'
p49
g2
sS'test_boelter3_13'
p50
g2
sS'test_boelter3_12'
p51
g2
sS'test_boelter3_11'
p52
g2
sS'test_boelter3_10'
p53
g12
sS'test_boelter_9'
p54
g12
sS'test_boelter_5'
p55
g2
sS'test_boelter_4'
p56
g2
sS'test_boelter_7'
p57
g2
sS'test_boelter_6'
p58
g2
sS'test_boelter_1'
p59
g12
sS'test_boelter_3'
p60
g12
sS'test_boelter_2'
p61
g2
sS'test_94342_8'
p62
g2
sS'test_94342_0'
p63
g2
sS'test_94342_1'
p64
g2
sS'test_94342_2'
p65
g2
sS'test_94342_3'
p66
g2
sS'test_94342_4'
p67
g2
sS'test_94342_5'
p68
g2
sS'test_94342_6'
p69
g2
sS'test_94342_7'
p70
g2
sS'test_boelter3_7'
p71
g2
sS'test_boelter3_6'
p72
g2
sS'test_boelter3_5'
p73
g2
sS'test_boelter3_4'
p74
g2
sS'test_boelter3_3'
p75
g2
sS'test_boelter3_2'
p76
g2
sS'test_boelter3_1'
p77
g2
sS'test_boelter3_0'
p78
g2
sS'test_boelter3_9'
p79
g2
sS'test_boelter3_8'
p80
g2
sS'test_94342_12'
p81
g2
sS'test_94342_13'
p82
g2
sS'test_94342_10'
p83
g12
sS'test_94342_11'
p84
g2
sS'test_94342_16'
p85
g2
sS'test_94342_17'
p86
g12
sS'test_94342_14'
p87
g2
sS'test_94342_15'
p88
g2
sS'test_94342_18'
p89
g12
sS'test_94342_19'
p90
g2
s.